target datalayout = "e-m:e-p270:32:32-p271:32:32-p272:64:64-i64:64-i128:128-f80:128-n8:16:32:64-S128"
target triple = "x86_64-pc-linux-gnu"

%struct._GLFWlibrary = type { i32, %struct.GLFWallocator, %struct._GLFWplatform, %struct.anon, ptr, ptr, ptr, ptr, i32, i32, [16 x %struct._GLFWjoystick], ptr, i32, %struct._GLFWtls, %struct._GLFWtls, %struct._GLFWmutex, %struct.anon.8, %struct.anon.9, %struct.anon.10, %struct.anon.11, %struct.anon.12, %struct._GLFWlibraryWayland, %struct._GLFWlibraryX11, %struct._GLFWlibraryNull, %struct._GLFWlibraryGLX, %struct._GLFWlibraryLinux }
%struct.GLFWallocator = type { ptr, ptr, ptr, ptr }
%struct._GLFWplatform = type { i32, ptr, ptr, ptr, ptr, ptr, ptr, ptr, ptr, ptr, ptr, ptr, ptr, ptr, ptr, ptr, ptr, ptr, ptr, ptr, ptr, ptr, ptr, ptr, ptr, ptr, ptr, ptr, ptr, ptr, ptr, ptr, ptr, ptr, ptr, ptr, ptr, ptr, ptr, ptr, ptr, ptr, ptr, ptr, ptr, ptr, ptr, ptr, ptr, ptr, ptr, ptr, ptr, ptr, ptr, ptr, ptr, ptr, ptr, ptr, ptr, ptr, ptr, ptr, ptr, ptr, ptr, ptr, ptr, ptr, ptr, ptr }
%struct.anon = type { %struct._GLFWinitconfig, %struct._GLFWfbconfig, %struct._GLFWwndconfig, %struct._GLFWctxconfig, i32 }
%struct._GLFWinitconfig = type { i32, i32, i32, ptr, %struct.anon.0, %struct.anon.1, %struct.anon.2 }
%struct.anon.0 = type { i32, i32 }
%struct.anon.1 = type { i32 }
%struct.anon.2 = type { i32 }
%struct._GLFWfbconfig = type { i32, i32, i32, i32, i32, i32, i32, i32, i32, i32, i32, i32, i32, i32, i32, i32, i64 }
%struct._GLFWwndconfig = type { i32, i32, i32, i32, ptr, i32, i32, i32, i32, i32, i32, i32, i32, i32, i32, i32, i32, %struct.anon.3, %struct.anon.4, %struct.anon.5, %struct.anon.6 }
%struct.anon.3 = type { [256 x i8] }
%struct.anon.4 = type { [256 x i8], [256 x i8] }
%struct.anon.5 = type { i32, i32 }
%struct.anon.6 = type { [256 x i8] }
%struct._GLFWctxconfig = type { i32, i32, i32, i32, i32, i32, i32, i32, i32, i32, ptr, %struct.anon.7 }
%struct.anon.7 = type { i32 }
%struct._GLFWjoystick = type { i32, i32, ptr, i32, ptr, i32, ptr, i32, [128 x i8], ptr, [33 x i8], ptr, %struct._GLFWjoystickLinux }
%struct._GLFWjoystickLinux = type { i32, [4096 x i8], [512 x i32], [64 x i32], [64 x %struct.input_absinfo], [4 x [2 x i32]] }
%struct.input_absinfo = type { i32, i32, i32, i32, i32, i32 }
%struct._GLFWtls = type { %struct._GLFWtlsPOSIX }
%struct._GLFWtlsPOSIX = type { i32, i32 }
%struct._GLFWmutex = type { %struct._GLFWmutexPOSIX }
%struct._GLFWmutexPOSIX = type { i32, %union.pthread_mutex_t }
%union.pthread_mutex_t = type { %struct.__pthread_mutex_s }
%struct.__pthread_mutex_s = type { i32, i32, i32, i32, i32, i16, i16, %struct.__pthread_internal_list }
%struct.__pthread_internal_list = type { ptr, ptr }
%struct.anon.8 = type { i64, %struct._GLFWtimerPOSIX }
%struct._GLFWtimerPOSIX = type { i32, i64 }
%struct.anon.9 = type { i32, ptr, i32, i32, i32, i32, i32, i32, i32, i32, i32, i32, i32, i32, i32, i32, i32, i32, i32, i32, ptr, ptr, ptr, ptr, ptr, ptr, ptr, ptr, ptr, ptr, ptr, ptr, ptr, ptr, ptr, ptr, ptr, ptr, ptr }
%struct.anon.10 = type { ptr, ptr, ptr, ptr, ptr, ptr, ptr, ptr }
%struct.anon.11 = type { i32, ptr, [2 x ptr], ptr, i32, i32, i32, i32, i32, i32, i32 }
%struct.anon.12 = type { ptr, ptr }
%struct._GLFWlibraryWayland = type { ptr, ptr, ptr, ptr, ptr, ptr, ptr, ptr, ptr, ptr, ptr, ptr, ptr, ptr, ptr, ptr, ptr, ptr, ptr, i32, ptr, ptr, ptr, ptr, i32, ptr, ptr, ptr, ptr, ptr, i32, i32, i32, i32, i32, i32, i32, ptr, [256 x i16], [349 x i16], [349 x [5 x i8]], %struct.anon.13, ptr, ptr, %struct.anon.14, %struct.anon.15, %struct.anon.16, %struct.anon.17 }
%struct.anon.13 = type { ptr, ptr, ptr, ptr, ptr, i32, i32, i32, i32, i32, i32, i32, ptr, ptr, ptr, ptr, ptr, ptr, ptr, ptr, ptr, ptr, ptr, ptr, ptr, ptr, ptr, ptr, ptr, ptr, ptr, ptr }
%struct.anon.14 = type { ptr, ptr, ptr, ptr, ptr, ptr, ptr, ptr, ptr, ptr, ptr, ptr, ptr, ptr, ptr, ptr, ptr, ptr, ptr, ptr }
%struct.anon.15 = type { ptr, ptr, ptr, ptr, ptr }
%struct.anon.16 = type { ptr, ptr, ptr, ptr }
%struct.anon.17 = type { ptr, ptr, ptr, i32, ptr, ptr, ptr, ptr, ptr, ptr, ptr, ptr, ptr, ptr, ptr, ptr, ptr, ptr, ptr, ptr, ptr, ptr, ptr, ptr, ptr, ptr, ptr, ptr, ptr }
%struct._GLFWlibraryX11 = type { ptr, i32, i64, float, float, i64, i64, i32, ptr, ptr, i32, ptr, ptr, [349 x [5 x i8]], [256 x i16], [349 x i16], double, double, ptr, [2 x i32], i64, i64, i64, i64, i64, i64, i64, i64, i64, i64, i64, i64, i64, i64, i64, i64, i64, i64, i64, i64, i64, i64, i64, i64, i64, i64, i64, i64, i64, i64, i64, i64, i64, i64, i64, i64, i64, i64, i64, i64, i64, i64, i64, i64, i64, i64, i64, i64, i64, i64, %struct.anon.18, %struct.anon.19, %struct.anon.20, %struct.anon.21, %struct.anon.22, %struct.anon.23, %struct.anon.24, %struct.anon.25, %struct.anon.26, %struct.anon.27, %struct.anon.28, %struct.anon.29, %struct.anon.30 }
%struct.anon.18 = type { ptr, i32, ptr, ptr, ptr, ptr, ptr, ptr, ptr, ptr, ptr, ptr, ptr, ptr, ptr, ptr, ptr, ptr, ptr, ptr, ptr, ptr, ptr, ptr, ptr, ptr, ptr, ptr, ptr, ptr, ptr, ptr, ptr, ptr, ptr, ptr, ptr, ptr, ptr, ptr, ptr, ptr, ptr, ptr, ptr, ptr, ptr, ptr, ptr, ptr, ptr, ptr, ptr, ptr, ptr, ptr, ptr, ptr, ptr, ptr, ptr, ptr, ptr, ptr, ptr, ptr, ptr, ptr, ptr, ptr, ptr, ptr, ptr, ptr, ptr, ptr, ptr, ptr, ptr, ptr, ptr, ptr, ptr, ptr, ptr, ptr, ptr, ptr }
%struct.anon.19 = type { ptr, ptr, ptr, ptr }
%struct.anon.20 = type { i32, ptr, i32, i32, i32, i32, i32, i32, ptr, ptr, ptr, ptr, ptr, ptr, ptr, ptr, ptr, ptr, ptr, ptr, ptr, ptr, ptr, ptr, ptr }
%struct.anon.21 = type { i32, i32, i32, i32, i32, i32, i32, i32, ptr, ptr, ptr, ptr, ptr, ptr, ptr, ptr, ptr }
%struct.anon.22 = type { i32, i32, i32, i32, i32 }
%struct.anon.23 = type { i32, i64, i64 }
%struct.anon.24 = type { ptr, ptr, ptr, ptr, ptr, ptr, ptr }
%struct.anon.25 = type { i32, ptr, i32, i32, ptr, ptr, ptr }
%struct.anon.26 = type { ptr, ptr }
%struct.anon.27 = type { i32, ptr, i32, i32, ptr, ptr, ptr, ptr }
%struct.anon.28 = type { i32, ptr, i32, i32, i32, i32, i32, ptr, ptr }
%struct.anon.29 = type { i32, ptr, i32, i32, i32, i32, ptr, ptr, ptr }
%struct.anon.30 = type { i32, ptr, i32, i32, i32, i32, ptr, ptr, ptr, ptr }
%struct._GLFWlibraryNull = type { i32, i32, ptr, ptr, [121 x i16], [349 x i8] }
%struct._GLFWlibraryGLX = type { i32, i32, i32, i32, ptr, ptr, ptr, ptr, ptr, ptr, ptr, ptr, ptr, ptr, ptr, ptr, ptr, ptr, ptr, ptr, ptr, ptr, ptr, ptr, i32, i32, i32, i32, i32, i32, i32, i32, i32, i32, i32, i32 }
%struct._GLFWlibraryLinux = type { i32, i32, %struct.re_pattern_buffer, i32, i32 }
%struct.re_pattern_buffer = type { ptr, i64, i64, i64, ptr, ptr, i64, i8 }
%struct._GLFWwindow = type { ptr, i32, i32, i32, i32, i32, i32, i32, ptr, i32, %struct.GLFWvidmode, ptr, ptr, ptr, i32, i32, i32, i32, i32, i32, i32, i32, i32, i32, [8 x i8], [349 x i8], double, double, i32, %struct._GLFWcontext, %struct.anon.33, %struct._GLFWwindowWayland, %struct._GLFWwindowX11, %struct._GLFWwindowNull }
%struct.GLFWvidmode = type { i32, i32, i32, i32, i32, i32 }
%struct._GLFWcontext = type { i32, i32, i32, i32, i32, i32, i32, i32, i32, i32, i32, ptr, ptr, ptr, ptr, ptr, ptr, ptr, ptr, ptr, %struct.anon.31, %struct.anon.32, %struct._GLFWcontextGLX }
%struct.anon.31 = type { ptr, ptr, ptr, ptr }
%struct.anon.32 = type { ptr, i32, i32, ptr }
%struct._GLFWcontextGLX = type { ptr, i64 }
%struct.anon.33 = type { ptr, ptr, ptr, ptr, ptr, ptr, ptr, ptr, ptr, ptr, ptr, ptr, ptr, ptr, ptr, ptr, ptr }
%struct._GLFWwindowWayland = type { i32, i32, i32, i32, i32, i32, i32, i32, i32, i32, i32, ptr, ptr, %struct.anon.34, %struct.anon.35, %struct.anon.36, %struct.anon.37, ptr, double, double, ptr, i32, ptr, i64, i64, ptr, i32, ptr, ptr, ptr, ptr, ptr, ptr, %struct.anon.38 }
%struct.anon.34 = type { ptr }
%struct.anon.35 = type { i32, i32, i32, i32, i32, i32 }
%struct.anon.36 = type { ptr, ptr, ptr, i32 }
%struct.anon.37 = type { ptr }
%struct.anon.38 = type { i32, ptr, %struct._GLFWfallbackEdgeWayland, %struct._GLFWfallbackEdgeWayland, %struct._GLFWfallbackEdgeWayland, %struct._GLFWfallbackEdgeWayland, ptr }
%struct._GLFWfallbackEdgeWayland = type { ptr, ptr, ptr }
%struct._GLFWwindowX11 = type { i64, i64, i64, ptr, i32, i32, i32, i32, i32, i32, i32, i32, i32, i32, i32, i32, [256 x i64] }
%struct._GLFWwindowNull = type { i32, i32, i32, i32, i32, i32, i32, i32, i32, i32, i32, float }

@_glfw = external global %struct._GLFWlibrary, align 8

; Function Attrs: nounwind uwtable
define hidden void @_glfwSetWindowTitleX11(ptr noundef %0, ptr noundef %1) #0 {
  %3 = alloca ptr, align 8
  %4 = alloca ptr, align 8
  store ptr %0, ptr %3, align 8, !tbaa !133
  store ptr %1, ptr %4, align 8, !tbaa !113
  %5 = load i32, ptr getelementptr inbounds nuw (%struct.anon.18, ptr getelementptr inbounds nuw (%struct._GLFWlibraryX11, ptr getelementptr inbounds nuw (%struct._GLFWlibrary, ptr @_glfw, i32 0, i32 22), i32 0, i32 70), i32 0, i32 1), align 8, !tbaa !308
  %6 = icmp ne i32 %5, 0
  br i1 %6, label %7, label %16

7:                                                ; preds = %2
  %8 = load ptr, ptr getelementptr inbounds nuw (%struct.anon.18, ptr getelementptr inbounds nuw (%struct._GLFWlibraryX11, ptr getelementptr inbounds nuw (%struct._GLFWlibrary, ptr @_glfw, i32 0, i32 22), i32 0, i32 70), i32 0, i32 87), align 8, !tbaa !309
  %9 = load ptr, ptr getelementptr inbounds nuw (%struct._GLFWlibrary, ptr @_glfw, i32 0, i32 22), align 8, !tbaa !96
  %10 = load ptr, ptr %3, align 8, !tbaa !133
  %11 = getelementptr inbounds nuw %struct._GLFWwindow, ptr %10, i32 0, i32 32
  %12 = getelementptr inbounds nuw %struct._GLFWwindowX11, ptr %11, i32 0, i32 1
  %13 = load i64, ptr %12, align 8, !tbaa !139
  %14 = load ptr, ptr %4, align 8, !tbaa !113
  %15 = load ptr, ptr %4, align 8, !tbaa !113
  call void %8(ptr noundef %9, i64 noundef %13, ptr noundef %14, ptr noundef %15, ptr noundef null, i32 noundef 0, ptr noundef null, ptr noundef null, ptr noundef null)
  br label %16

16:                                               ; preds = %7, %2
  %17 = load ptr, ptr getelementptr inbounds nuw (%struct.anon.18, ptr getelementptr inbounds nuw (%struct._GLFWlibraryX11, ptr getelementptr inbounds nuw (%struct._GLFWlibrary, ptr @_glfw, i32 0, i32 22), i32 0, i32 70), i32 0, i32 5), align 8, !tbaa !227
  %18 = load ptr, ptr getelementptr inbounds nuw (%struct._GLFWlibrary, ptr @_glfw, i32 0, i32 22), align 8, !tbaa !96
  %19 = load ptr, ptr %3, align 8, !tbaa !133
  %20 = getelementptr inbounds nuw %struct._GLFWwindow, ptr %19, i32 0, i32 32
  %21 = getelementptr inbounds nuw %struct._GLFWwindowX11, ptr %20, i32 0, i32 1
  %22 = load i64, ptr %21, align 8, !tbaa !139
  %23 = load i64, ptr getelementptr inbounds nuw (%struct._GLFWlibraryX11, ptr getelementptr inbounds nuw (%struct._GLFWlibrary, ptr @_glfw, i32 0, i32 22), i32 0, i32 25), align 8, !tbaa !310
  %24 = load i64, ptr getelementptr inbounds nuw (%struct._GLFWlibraryX11, ptr getelementptr inbounds nuw (%struct._GLFWlibrary, ptr @_glfw, i32 0, i32 22), i32 0, i32 66), align 8, !tbaa !311
  %25 = load ptr, ptr %4, align 8, !tbaa !113
  %26 = load ptr, ptr %4, align 8, !tbaa !113
  %27 = call i64 @strlen(ptr noundef %26) #9
  %28 = trunc i64 %27 to i32
  %29 = call i32 %17(ptr noundef %18, i64 noundef %22, i64 noundef %23, i64 noundef %24, i32 noundef 8, i32 noundef 0, ptr noundef %25, i32 noundef %28)
  %30 = load ptr, ptr getelementptr inbounds nuw (%struct.anon.18, ptr getelementptr inbounds nuw (%struct._GLFWlibraryX11, ptr getelementptr inbounds nuw (%struct._GLFWlibrary, ptr @_glfw, i32 0, i32 22), i32 0, i32 70), i32 0, i32 5), align 8, !tbaa !227
  %31 = load ptr, ptr getelementptr inbounds nuw (%struct._GLFWlibrary, ptr @_glfw, i32 0, i32 22), align 8, !tbaa !96
  %32 = load ptr, ptr %3, align 8, !tbaa !133
  %33 = getelementptr inbounds nuw %struct._GLFWwindow, ptr %32, i32 0, i32 32
  %34 = getelementptr inbounds nuw %struct._GLFWwindowX11, ptr %33, i32 0, i32 1
  %35 = load i64, ptr %34, align 8, !tbaa !139
  %36 = load i64, ptr getelementptr inbounds nuw (%struct._GLFWlibraryX11, ptr getelementptr inbounds nuw (%struct._GLFWlibrary, ptr @_glfw, i32 0, i32 22), i32 0, i32 26), align 8, !tbaa !312
  %37 = load i64, ptr getelementptr inbounds nuw (%struct._GLFWlibraryX11, ptr getelementptr inbounds nuw (%struct._GLFWlibrary, ptr @_glfw, i32 0, i32 22), i32 0, i32 66), align 8, !tbaa !311
  %38 = load ptr, ptr %4, align 8, !tbaa !113
  %39 = load ptr, ptr %4, align 8, !tbaa !113
  %40 = call i64 @strlen(ptr noundef %39) #9
  %41 = trunc i64 %40 to i32
  %42 = call i32 %30(ptr noundef %31, i64 noundef %35, i64 noundef %36, i64 noundef %37, i32 noundef 8, i32 noundef 0, ptr noundef %38, i32 noundef %41)
  %43 = load ptr, ptr getelementptr inbounds nuw (%struct.anon.18, ptr getelementptr inbounds nuw (%struct._GLFWlibraryX11, ptr getelementptr inbounds nuw (%struct._GLFWlibrary, ptr @_glfw, i32 0, i32 22), i32 0, i32 70), i32 0, i32 27), align 8, !tbaa !200
  %44 = load ptr, ptr getelementptr inbounds nuw (%struct._GLFWlibrary, ptr @_glfw, i32 0, i32 22), align 8, !tbaa !96
  %45 = call i32 %43(ptr noundef %44)
  ret void
}