; Function Attrs: nounwind uwtable
define hidden void @_glfwSetWindowTitleX11(ptr noundef readonly captures(none) %0, ptr noundef %1) local_unnamed_addr #0 {
  %3 = load i32, ptr getelementptr inbounds nuw (i8, ptr @_glfw, i64 141336), align 8, !tbaa !322
  %.not = icmp eq i32 %3, 0
  br i1 %.not, label %9, label %4

4:                                                ; preds = %2
  %5 = load ptr, ptr getelementptr inbounds nuw (i8, ptr @_glfw, i64 142024), align 8, !tbaa !323
  %6 = load ptr, ptr getelementptr inbounds nuw (i8, ptr @_glfw, i64 137840), align 8, !tbaa !93
  %7 = getelementptr inbounds nuw i8, ptr %0, i64 1248
  %8 = load i64, ptr %7, align 8, !tbaa !140
  tail call void %5(ptr noundef %6, i64 noundef %8, ptr noundef %1, ptr noundef %1, ptr noundef null, i32 noundef 0, ptr noundef null, ptr noundef null, ptr noundef null) #17
  br label %9

9:                                                ; preds = %4, %2
  %10 = load ptr, ptr getelementptr inbounds nuw (i8, ptr @_glfw, i64 141368), align 8, !tbaa !125
  %11 = load ptr, ptr getelementptr inbounds nuw (i8, ptr @_glfw, i64 137840), align 8, !tbaa !93
  %12 = getelementptr inbounds nuw i8, ptr %0, i64 1248
  %13 = load i64, ptr %12, align 8, !tbaa !140
  %14 = load i64, ptr getelementptr inbounds nuw (i8, ptr @_glfw, i64 140968), align 8, !tbaa !324
  %15 = load i64, ptr getelementptr inbounds nuw (i8, ptr @_glfw, i64 141296), align 8, !tbaa !117
  %16 = tail call i64 @strlen(ptr noundef nonnull dereferenceable(1) %1) #18
  %17 = trunc i64 %16 to i32
  %18 = tail call i32 %10(ptr noundef %11, i64 noundef %13, i64 noundef %14, i64 noundef %15, i32 noundef 8, i32 noundef 0, ptr noundef nonnull %1, i32 noundef %17) #17
  %19 = load ptr, ptr getelementptr inbounds nuw (i8, ptr @_glfw, i64 141368), align 8, !tbaa !125
  %20 = load ptr, ptr getelementptr inbounds nuw (i8, ptr @_glfw, i64 137840), align 8, !tbaa !93
  %21 = load i64, ptr %12, align 8, !tbaa !140
  %22 = load i64, ptr getelementptr inbounds nuw (i8, ptr @_glfw, i64 140976), align 8, !tbaa !325
  %23 = load i64, ptr getelementptr inbounds nuw (i8, ptr @_glfw, i64 141296), align 8, !tbaa !117
  %24 = tail call i64 @strlen(ptr noundef nonnull dereferenceable(1) %1) #18
  %25 = trunc i64 %24 to i32
  %26 = tail call i32 %19(ptr noundef %20, i64 noundef %21, i64 noundef %22, i64 noundef %23, i32 noundef 8, i32 noundef 0, ptr noundef nonnull %1, i32 noundef %25) #17
  %27 = load ptr, ptr getelementptr inbounds nuw (i8, ptr @_glfw, i64 141544), align 8, !tbaa !261
  %28 = load ptr, ptr getelementptr inbounds nuw (i8, ptr @_glfw, i64 137840), align 8, !tbaa !93
  %29 = tail call i32 %27(ptr noundef %28) #17
  ret void
}